target datalayout = "e-m:e-p270:32:32-p271:32:32-p272:64:64-i64:64-i128:128-f80:128-n8:16:32:64-S128"
target triple = "x86_64-pc-linux-gnu"

%struct.uv__queue = type { ptr, ptr }
%"struct.lean::lean_uv_tcp_socket_object" = type { ptr, ptr, ptr, ptr, ptr, ptr }
%struct.uv_buf_t = type { ptr, i64 }
%struct.lean_sarray_object = type { %struct.lean_object, i64, i64, [0 x i8] }
%struct.lean_object = type { i32, i32 }
%class.anon.8 = type { i8 }
%struct.uv_handle_s = type { ptr, ptr, i32, ptr, %struct.uv__queue, %union.anon.20, ptr, i32 }
%union.anon.20 = type { [4 x ptr] }
%struct.lean_external_object = type { %struct.lean_object, ptr, ptr }

; Function Attrs: inlinehint mustprogress nounwind uwtable
define internal noundef ptr @_ZL16lean_to_externalP11lean_object(ptr noundef %0) #5 {
  %2 = alloca ptr, align 8
  store ptr %0, ptr %2, align 8, !tbaa !3
  %3 = load ptr, ptr %2, align 8, !tbaa !3
  ret ptr %3
}

; Function Attrs: inlinehint mustprogress nounwind uwtable
define internal noundef ptr @_ZL14lean_to_sarrayP11lean_object(ptr noundef %0) #5 {
  %2 = alloca ptr, align 8
  store ptr %0, ptr %2, align 8, !tbaa !3
  %3 = load ptr, ptr %2, align 8, !tbaa !3
  ret ptr %3
}

; Function Attrs: inlinehint mustprogress uwtable
define internal noundef ptr @_ZL22lean_get_external_dataP11lean_object(ptr noundef %0) #7 {
  %2 = alloca ptr, align 8
  store ptr %0, ptr %2, align 8, !tbaa !3
  %3 = load ptr, ptr %2, align 8, !tbaa !3
  %4 = call noundef ptr @_ZL16lean_to_externalP11lean_object(ptr noundef %3)
  %5 = getelementptr inbounds nuw %struct.lean_external_object, ptr %4, i32 0, i32 2
  %6 = load ptr, ptr %5, align 8, !tbaa !90
  ret ptr %6
}

; Function Attrs: inlinehint mustprogress nounwind uwtable
define internal noundef i64 @_ZL20lean_sarray_capacityP11lean_object(ptr noundef %0) #5 {
  %2 = alloca ptr, align 8
  store ptr %0, ptr %2, align 8, !tbaa !3
  %3 = load ptr, ptr %2, align 8, !tbaa !3
  %4 = call noundef ptr @_ZL14lean_to_sarrayP11lean_object(ptr noundef %3)
  %5 = getelementptr inbounds nuw %struct.lean_sarray_object, ptr %4, i32 0, i32 2
  %6 = load i64, ptr %5, align 8, !tbaa !46
  ret i64 %6
}

; Function Attrs: inlinehint mustprogress nounwind uwtable
define internal noundef ptr @_ZL16lean_sarray_cptrP11lean_object(ptr noundef %0) #5 {
  %2 = alloca ptr, align 8
  store ptr %0, ptr %2, align 8, !tbaa !3
  %3 = load ptr, ptr %2, align 8, !tbaa !3
  %4 = call noundef ptr @_ZL14lean_to_sarrayP11lean_object(ptr noundef %3)
  %5 = getelementptr inbounds nuw %struct.lean_sarray_object, ptr %4, i32 0, i32 3
  %6 = getelementptr inbounds [0 x i8], ptr %5, i64 0, i64 0
  ret ptr %6
}

; Function Attrs: inlinehint mustprogress uwtable
define internal noundef ptr @_ZN4leanL21lean_to_uv_tcp_socketEP11lean_object(ptr noundef %0) #7 {
  %2 = alloca ptr, align 8
  store ptr %0, ptr %2, align 8, !tbaa !3
  %3 = load ptr, ptr %2, align 8, !tbaa !3
  %4 = call noundef ptr @_ZL22lean_get_external_dataP11lean_object(ptr noundef %3)
  ret ptr %4
}

; Function Attrs: inlinehint mustprogress uwtable
define internal void @"_ZZ16lean_uv_tcp_recvENK3$_0clEP11uv_handle_smP8uv_buf_t"(ptr noundef nonnull align 1 dereferenceable(1) %0, ptr noundef %1, i64 noundef %2, ptr noundef %3) #7 align 2 {
  %5 = alloca ptr, align 8
  %6 = alloca ptr, align 8
  %7 = alloca i64, align 8
  %8 = alloca ptr, align 8
  %9 = alloca ptr, align 8
  store ptr %0, ptr %5, align 8, !tbaa !3
  store ptr %1, ptr %6, align 8, !tbaa !81
  store i64 %2, ptr %7, align 8, !tbaa !46
  store ptr %3, ptr %8, align 8, !tbaa !91
  call void @llvm.lifetime.start.p0(i64 8, ptr %9) #14
  %10 = load ptr, ptr %6, align 8, !tbaa !81
  %11 = getelementptr inbounds nuw %struct.uv_handle_s, ptr %10, i32 0, i32 0
  %12 = load ptr, ptr %11, align 8, !tbaa !82
  %13 = call noundef ptr @_ZN4leanL21lean_to_uv_tcp_socketEP11lean_object(ptr noundef %12)
  store ptr %13, ptr %9, align 8, !tbaa !3
  %14 = load ptr, ptr %9, align 8, !tbaa !3
  %15 = getelementptr inbounds nuw %"struct.lean::lean_uv_tcp_socket_object", ptr %14, i32 0, i32 5
  %16 = load ptr, ptr %15, align 8, !tbaa !12
  %17 = call noundef ptr @_ZL16lean_sarray_cptrP11lean_object(ptr noundef %16)
  %18 = load ptr, ptr %8, align 8, !tbaa !91
  %19 = getelementptr inbounds nuw %struct.uv_buf_t, ptr %18, i32 0, i32 0
  store ptr %17, ptr %19, align 8, !tbaa !92
  %20 = load ptr, ptr %9, align 8, !tbaa !3
  %21 = getelementptr inbounds nuw %"struct.lean::lean_uv_tcp_socket_object", ptr %20, i32 0, i32 5
  %22 = load ptr, ptr %21, align 8, !tbaa !12
  %23 = call noundef i64 @_ZL20lean_sarray_capacityP11lean_object(ptr noundef %22)
  %24 = load ptr, ptr %8, align 8, !tbaa !91
  %25 = getelementptr inbounds nuw %struct.uv_buf_t, ptr %24, i32 0, i32 1
  store i64 %23, ptr %25, align 8, !tbaa !94
  call void @llvm.lifetime.end.p0(i64 8, ptr %9) #14
  ret void
}

; Function Attrs: inlinehint mustprogress uwtable
define internal void @"_ZZ16lean_uv_tcp_recvEN3$_08__invokeEP11uv_handle_smP8uv_buf_t"(ptr noundef %0, i64 noundef %1, ptr noundef %2) #7 align 2 {
  %4 = alloca ptr, align 8
  %5 = alloca i64, align 8
  %6 = alloca ptr, align 8
  %7 = alloca %class.anon.8, align 1
  store ptr %0, ptr %4, align 8, !tbaa !81
  store i64 %1, ptr %5, align 8, !tbaa !46
  store ptr %2, ptr %6, align 8, !tbaa !91
  %8 = load ptr, ptr %4, align 8, !tbaa !81
  %9 = load i64, ptr %5, align 8, !tbaa !46
  %10 = load ptr, ptr %6, align 8, !tbaa !91
  call void @"_ZZ16lean_uv_tcp_recvENK3$_0clEP11uv_handle_smP8uv_buf_t"(ptr noundef nonnull align 1 dereferenceable(1) %7, ptr noundef %8, i64 noundef %9, ptr noundef %10)
  ret void
}