; Function Attrs: inlinehint mustprogress nofree norecurse nosync nounwind willreturn memory(read, argmem: readwrite, inaccessiblemem: none) uwtable
define internal void @"_ZZ16lean_uv_tcp_recvEN3$_08__invokeEP11uv_handle_smP8uv_buf_t"(ptr noundef readonly captures(none) %0, i64 %1, ptr noundef writeonly captures(none) initializes((0, 16)) %2) #12 align 2 {
  %.val = load ptr, ptr %0, align 8, !tbaa !65
  %4 = getelementptr i8, ptr %.val, i64 16
  %.val.val = load ptr, ptr %4, align 8, !tbaa !44
  %5 = getelementptr i8, ptr %.val.val, i64 40
  %.val.val.val = load ptr, ptr %5, align 8, !tbaa !21
  %6 = getelementptr inbounds nuw i8, ptr %.val.val.val, i64 24
  store ptr %6, ptr %2, align 8, !tbaa !67
  %7 = getelementptr i8, ptr %.val.val.val, i64 16
  %.val5.i = load i64, ptr %7, align 8, !tbaa !53
  %8 = getelementptr inbounds nuw i8, ptr %2, i64 8
  store i64 %.val5.i, ptr %8, align 8, !tbaa !69
  ret void
}